; Function Attrs: mustprogress uwtable
define hidden void @_Z7calcPSFRN2cv3MatENS_5Size_IiEEi(ptr noundef nonnull align 8 dereferenceable(96) %0, i64 %1, i32 noundef %2) local_unnamed_addr #6 personality ptr @__gxx_personality_v0 {
  %4 = alloca %"class.cv::Mat", align 8
  %5 = alloca %"class.cv::Scalar_", align 8
  %6 = alloca %"class.cv::_InputOutputArray", align 8
  %7 = alloca %"class.cv::Scalar_", align 8
  %8 = alloca %"class.cv::Scalar_", align 8
  %9 = alloca %"class.cv::_InputArray", align 8
  %10 = alloca %"class.cv::MatExpr", align 8
  %.sroa.04.0.extract.trunc = trunc i64 %1 to i32
  %.sroa.3.0.extract.shift = lshr i64 %1, 32
  %.sroa.3.0.extract.trunc = trunc nuw i64 %.sroa.3.0.extract.shift to i32
  call void @llvm.lifetime.start.p0(i64 96, ptr nonnull %4) #15
  call void @llvm.lifetime.start.p0(i64 32, ptr nonnull %5) #15
  call void @llvm.memset.p0.i64(ptr noundef nonnull align 8 dereferenceable(32) %5, i8 0, i64 32, i1 false)
  call void @_ZN2cv3MatC1ENS_5Size_IiEEiRKNS_7Scalar_IdEE(ptr noundef nonnull align 8 dereferenceable(96) %4, i64 %1, i32 noundef 5, ptr noundef nonnull align 8 dereferenceable(32) %5)
  call void @llvm.lifetime.end.p0(i64 32, ptr nonnull %5) #15
  %11 = sdiv i32 %.sroa.04.0.extract.trunc, 2
  %12 = sdiv i32 %.sroa.3.0.extract.trunc, 2
  call void @llvm.lifetime.start.p0(i64 24, ptr nonnull %6) #15
  %13 = getelementptr inbounds nuw i8, ptr %6, i64 8
  %14 = getelementptr inbounds nuw i8, ptr %6, i64 16
  store i64 0, ptr %14, align 8
  store i32 50397184, ptr %6, align 8, !tbaa !58
  store ptr %4, ptr %13, align 8, !tbaa !61
  %.sroa.5.0.insert.ext = zext i32 %12 to i64
  %.sroa.5.0.insert.shift = shl nuw i64 %.sroa.5.0.insert.ext, 32
  %.sroa.0.0.insert.ext = zext i32 %11 to i64
  %.sroa.0.0.insert.insert = or disjoint i64 %.sroa.5.0.insert.shift, %.sroa.0.0.insert.ext
  call void @llvm.lifetime.start.p0(i64 32, ptr nonnull %7) #15
  store double 2.550000e+02, ptr %7, align 8, !tbaa !66
  %15 = getelementptr inbounds nuw i8, ptr %7, i64 8
  call void @llvm.memset.p0.i64(ptr noundef nonnull align 8 dereferenceable(24) %15, i8 0, i64 24, i1 false)
  invoke void @_ZN2cv6circleERKNS_17_InputOutputArrayENS_6Point_IiEEiRKNS_7Scalar_IdEEiii(ptr noundef nonnull align 8 dereferenceable(24) %6, i64 %.sroa.0.0.insert.insert, i32 noundef %2, ptr noundef nonnull align 8 dereferenceable(32) %7, i32 noundef -1, i32 noundef 8, i32 noundef 0)
          to label %16 unwind label %30

16:                                               ; preds = %3
  call void @llvm.lifetime.end.p0(i64 32, ptr nonnull %7) #15
  call void @llvm.lifetime.end.p0(i64 24, ptr nonnull %6) #15
  call void @llvm.lifetime.start.p0(i64 32, ptr nonnull %8) #15
  call void @llvm.lifetime.start.p0(i64 24, ptr nonnull %9) #15
  %17 = getelementptr inbounds nuw i8, ptr %9, i64 16
  store i32 0, ptr %17, align 8, !tbaa !62
  %18 = getelementptr inbounds nuw i8, ptr %9, i64 20
  store i32 0, ptr %18, align 4, !tbaa !63
  store i32 16842752, ptr %9, align 8, !tbaa !58
  %19 = getelementptr inbounds nuw i8, ptr %9, i64 8
  store ptr %4, ptr %19, align 8, !tbaa !61
  invoke void @_ZN2cv3sumERKNS_11_InputArrayE(ptr dead_on_unwind nonnull writable sret(%"class.cv::Scalar_") align 8 %8, ptr noundef nonnull align 8 dereferenceable(24) %9)
          to label %20 unwind label %32

20:                                               ; preds = %16
  call void @llvm.lifetime.end.p0(i64 24, ptr nonnull %9) #15
  call void @llvm.lifetime.start.p0(i64 352, ptr nonnull %10) #15
  %21 = load double, ptr %8, align 8, !tbaa !66
  invoke void @_ZN2cvdvERKNS_3MatEd(ptr dead_on_unwind nonnull writable sret(%"class.cv::MatExpr") align 8 %10, ptr noundef nonnull align 8 dereferenceable(96) %4, double noundef %21)
          to label %22 unwind label %34

22:                                               ; preds = %20
  %23 = load ptr, ptr %10, align 8, !tbaa !68
  %24 = load ptr, ptr %23, align 8, !tbaa !21
  %25 = getelementptr inbounds nuw i8, ptr %24, i64 24
  %26 = load ptr, ptr %25, align 8
  invoke void %26(ptr noundef nonnull align 8 dereferenceable(8) %23, ptr noundef nonnull align 8 dereferenceable(352) %10, ptr noundef nonnull align 8 dereferenceable(96) %0, i32 noundef -1)
          to label %_ZN2cv3MataSERKNS_7MatExprE.exit unwind label %36

_ZN2cv3MataSERKNS_7MatExprE.exit:                 ; preds = %22
  %27 = getelementptr inbounds nuw i8, ptr %10, i64 208
  call void @_ZN2cv3MatD1Ev(ptr noundef nonnull align 8 dereferenceable(96) %27) #15
  %28 = getelementptr inbounds nuw i8, ptr %10, i64 112
  call void @_ZN2cv3MatD1Ev(ptr noundef nonnull align 8 dereferenceable(96) %28) #15
  %29 = getelementptr inbounds nuw i8, ptr %10, i64 16
  call void @_ZN2cv3MatD1Ev(ptr noundef nonnull align 8 dereferenceable(96) %29) #15
  call void @llvm.lifetime.end.p0(i64 352, ptr nonnull %10) #15
  call void @llvm.lifetime.end.p0(i64 32, ptr nonnull %8) #15
  call void @_ZN2cv3MatD1Ev(ptr noundef nonnull align 8 dereferenceable(96) %4) #15
  call void @llvm.lifetime.end.p0(i64 96, ptr nonnull %4) #15
  ret void

30:                                               ; preds = %3
  %31 = landingpad { ptr, i32 }
          cleanup
  call void @llvm.lifetime.end.p0(i64 32, ptr nonnull %7) #15
  call void @llvm.lifetime.end.p0(i64 24, ptr nonnull %6) #15
  br label %40

32:                                               ; preds = %16
  %33 = landingpad { ptr, i32 }
          cleanup
  call void @llvm.lifetime.end.p0(i64 24, ptr nonnull %9) #15
  br label %39

34:                                               ; preds = %20
  %35 = landingpad { ptr, i32 }
          cleanup
  br label %38

36:                                               ; preds = %22
  %37 = landingpad { ptr, i32 }
          cleanup
  call void @_ZN2cv7MatExprD2Ev(ptr noundef nonnull align 8 dereferenceable(352) %10) #15
  br label %38

38:                                               ; preds = %36, %34
  %.pn13 = phi { ptr, i32 } [ %37, %36 ], [ %35, %34 ]
  call void @llvm.lifetime.end.p0(i64 352, ptr nonnull %10) #15
  br label %39

39:                                               ; preds = %38, %32
  %.pn13.pn = phi { ptr, i32 } [ %.pn13, %38 ], [ %33, %32 ]
  call void @llvm.lifetime.end.p0(i64 32, ptr nonnull %8) #15
  br label %40

40:                                               ; preds = %39, %30
  %.pn13.pn.pn = phi { ptr, i32 } [ %.pn13.pn, %39 ], [ %31, %30 ]
  call void @_ZN2cv3MatD1Ev(ptr noundef nonnull align 8 dereferenceable(96) %4) #15
  call void @llvm.lifetime.end.p0(i64 96, ptr nonnull %4) #15
  resume { ptr, i32 } %.pn13.pn.pn
}